target datalayout = "e-m:e-p270:32:32-p271:32:32-p272:64:64-i64:64-i128:128-f80:128-n8:16:32:64-S128"
target triple = "x86_64-pc-linux-gnu"

; Function Attrs: nounwind uwtable
define i32 @BZ2_indexIntoF(i32 noundef %0, ptr noundef %1) #0 {
  %3 = alloca i32, align 4
  %4 = alloca ptr, align 8
  %5 = alloca i32, align 4
  %6 = alloca i32, align 4
  %7 = alloca i32, align 4
  store i32 %0, ptr %3, align 4
  store ptr %1, ptr %4, align 8
  store i32 0, ptr %5, align 4
  store i32 256, ptr %6, align 4
  br label %8

8:                                                ; preds = %25, %2
  %9 = load i32, ptr %5, align 4
  %10 = load i32, ptr %6, align 4
  %11 = add nsw i32 %9, %10
  %12 = ashr i32 %11, 1
  store i32 %12, ptr %7, align 4
  %13 = load i32, ptr %3, align 4
  %14 = load ptr, ptr %4, align 8
  %15 = load i32, ptr %7, align 4
  %16 = sext i32 %15 to i64
  %17 = getelementptr inbounds i32, ptr %14, i64 %16
  %18 = load i32, ptr %17, align 4
  %19 = icmp sge i32 %13, %18
  br i1 %19, label %20, label %22

20:                                               ; preds = %8
  %21 = load i32, ptr %7, align 4
  store i32 %21, ptr %5, align 4
  br label %24

22:                                               ; preds = %8
  %23 = load i32, ptr %7, align 4
  store i32 %23, ptr %6, align 4
  br label %24

24:                                               ; preds = %22, %20
  br label %25

25:                                               ; preds = %24
  %26 = load i32, ptr %6, align 4
  %27 = load i32, ptr %5, align 4
  %28 = sub nsw i32 %26, %27
  %29 = icmp ne i32 %28, 1
  br i1 %29, label %8, label %30, !llvm.loop !6

30:                                               ; preds = %25
  %31 = load i32, ptr %5, align 4
  ret i32 %31
}