; Function Attrs: nofree norecurse nosync nounwind memory(argmem: read) uwtable
define i32 @BZ2_indexIntoF(i32 noundef %0, ptr noundef readonly captures(none) %1) local_unnamed_addr #7 {
  br label %3

3:                                                ; preds = %3, %2
  %.09 = phi i32 [ 256, %2 ], [ %..09, %3 ]
  %.0 = phi i32 [ 0, %2 ], [ %.0., %3 ]
  %4 = add nsw i32 %.0, %.09
  %5 = ashr i32 %4, 1
  %6 = sext i32 %5 to i64
  %7 = getelementptr inbounds i32, ptr %1, i64 %6
  %8 = load i32, ptr %7, align 4
  %.not = icmp slt i32 %0, %8
  %..09 = select i1 %.not, i32 %5, i32 %.09
  %.0. = select i1 %.not, i32 %.0, i32 %5
  %9 = sub nsw i32 %..09, %.0.
  %.not11 = icmp eq i32 %9, 1
  br i1 %.not11, label %10, label %3, !llvm.loop !4

10:                                               ; preds = %3
  ret i32 %.0.
}